; Function Attrs: mustprogress uwtable
define hidden noundef nonnull align 8 dereferenceable(8) ptr @_ZN3sls10smt_solver7displayERSo(ptr noundef nonnull readonly align 8 captures(none) dereferenceable(488) %0, ptr noundef nonnull align 8 dereferenceable(8) %1) local_unnamed_addr #3 align 2 {
  %3 = getelementptr inbounds nuw i8, ptr %0, i64 448
  %4 = load ptr, ptr %3, align 8, !tbaa !8
  %5 = load ptr, ptr %4, align 8, !tbaa !130
  %6 = getelementptr inbounds nuw i8, ptr %5, i64 56
  %7 = load ptr, ptr %6, align 8
  %8 = tail call noundef nonnull align 8 dereferenceable(8) ptr %7(ptr noundef nonnull align 8 dereferenceable(401) %4, ptr noundef nonnull align 8 dereferenceable(8) %1)
  ret ptr %8
}